#include <math.h>
#include <stdio.h>
#include <stdlib.h>
#include <string.h>

int main()
{
	int m,n;
	int h,l,i;
	int sz[100][100];
	scanf("%d%d",&m,&n);
	for(h=0;h<m;h++)
	{
		for(l=0;l<n;l++)
		{
			scanf("%d",&(sz[h][l]));
		}
	}
	for(i=0;i<(m+1)/2&&i<(n+1)/2;i++)
	{
	    for(l=i;l<n-1-i;l++)
		{
			printf("%d\n",sz[i][l]);
		}
	    for(h=i;h<=m-1-i;h++)
		{
			printf("%d\n",sz[h][n-1-i]);
		}
	    for(l=n-2-i;l>=i;l--)
		{
			if(i!=m-1-i&&i!=n-1-i)
			{
				printf("%d\n",sz[m-1-i][l]);
			}
		}
		for(h=m-2-i;h>=1+i;h--)
		{
			if(i!=m-1-i&&i!=n-1-i)
			{
		    	printf("%d\n",sz[h][i]);
			}
		}
	}
	return 0;
}
