; ModuleID = '46/1969.c'
source_filename = "46/1969.c"
target datalayout = "e-m:e-p270:32:32-p271:32:32-p272:64:64-i64:64-f80:128-n8:16:32:64-S128"
target triple = "x86_64-pc-linux-gnu"

@.str = private unnamed_addr constant [5 x i8] c"%d%d\00", align 1
@.str.1 = private unnamed_addr constant [3 x i8] c"%d\00", align 1
@.str.2 = private unnamed_addr constant [4 x i8] c"%d\0A\00", align 1

; Function Attrs: noinline nounwind uwtable
define dso_local i32 @main() #0 {
  %1 = alloca i32, align 4
  %2 = alloca i32, align 4
  %3 = alloca i32, align 4
  %4 = alloca i32, align 4
  %5 = alloca i32, align 4
  %6 = alloca i32, align 4
  %7 = alloca [100 x [100 x i32]], align 16
  store i32 0, i32* %1, align 4
  %8 = call i32 (i8*, ...) @__isoc99_scanf(i8* getelementptr inbounds ([5 x i8], [5 x i8]* @.str, i64 0, i64 0), i32* %2, i32* %3)
  store i32 0, i32* %4, align 4
  br label %9

9:                                                ; preds = %30, %0
  %10 = load i32, i32* %4, align 4
  %11 = load i32, i32* %2, align 4
  %12 = icmp slt i32 %10, %11
  br i1 %12, label %13, label %33

13:                                               ; preds = %9
  store i32 0, i32* %5, align 4
  br label %14

14:                                               ; preds = %26, %13
  %15 = load i32, i32* %5, align 4
  %16 = load i32, i32* %3, align 4
  %17 = icmp slt i32 %15, %16
  br i1 %17, label %18, label %29

18:                                               ; preds = %14
  %19 = load i32, i32* %4, align 4
  %20 = sext i32 %19 to i64
  %21 = getelementptr inbounds [100 x [100 x i32]], [100 x [100 x i32]]* %7, i64 0, i64 %20
  %22 = load i32, i32* %5, align 4
  %23 = sext i32 %22 to i64
  %24 = getelementptr inbounds [100 x i32], [100 x i32]* %21, i64 0, i64 %23
  %25 = call i32 (i8*, ...) @__isoc99_scanf(i8* getelementptr inbounds ([3 x i8], [3 x i8]* @.str.1, i64 0, i64 0), i32* %24)
  br label %26

26:                                               ; preds = %18
  %27 = load i32, i32* %5, align 4
  %28 = add nsw i32 %27, 1
  store i32 %28, i32* %5, align 4
  br label %14

29:                                               ; preds = %14
  br label %30

30:                                               ; preds = %29
  %31 = load i32, i32* %4, align 4
  %32 = add nsw i32 %31, 1
  store i32 %32, i32* %4, align 4
  br label %9

33:                                               ; preds = %9
  store i32 0, i32* %6, align 4
  br label %34

34:                                               ; preds = %170, %33
  %35 = load i32, i32* %6, align 4
  %36 = load i32, i32* %2, align 4
  %37 = add nsw i32 %36, 1
  %38 = sdiv i32 %37, 2
  %39 = icmp slt i32 %35, %38
  br i1 %39, label %40, label %46

40:                                               ; preds = %34
  %41 = load i32, i32* %6, align 4
  %42 = load i32, i32* %3, align 4
  %43 = add nsw i32 %42, 1
  %44 = sdiv i32 %43, 2
  %45 = icmp slt i32 %41, %44
  br label %46

46:                                               ; preds = %40, %34
  %47 = phi i1 [ false, %34 ], [ %45, %40 ]
  br i1 %47, label %48, label %173

48:                                               ; preds = %46
  %49 = load i32, i32* %6, align 4
  store i32 %49, i32* %5, align 4
  br label %50

50:                                               ; preds = %66, %48
  %51 = load i32, i32* %5, align 4
  %52 = load i32, i32* %3, align 4
  %53 = sub nsw i32 %52, 1
  %54 = load i32, i32* %6, align 4
  %55 = sub nsw i32 %53, %54
  %56 = icmp slt i32 %51, %55
  br i1 %56, label %57, label %69

57:                                               ; preds = %50
  %58 = load i32, i32* %6, align 4
  %59 = sext i32 %58 to i64
  %60 = getelementptr inbounds [100 x [100 x i32]], [100 x [100 x i32]]* %7, i64 0, i64 %59
  %61 = load i32, i32* %5, align 4
  %62 = sext i32 %61 to i64
  %63 = getelementptr inbounds [100 x i32], [100 x i32]* %60, i64 0, i64 %62
  %64 = load i32, i32* %63, align 4
  %65 = call i32 (i8*, ...) @printf(i8* getelementptr inbounds ([4 x i8], [4 x i8]* @.str.2, i64 0, i64 0), i32 %64)
  br label %66

66:                                               ; preds = %57
  %67 = load i32, i32* %5, align 4
  %68 = add nsw i32 %67, 1
  store i32 %68, i32* %5, align 4
  br label %50

69:                                               ; preds = %50
  %70 = load i32, i32* %6, align 4
  store i32 %70, i32* %4, align 4
  br label %71

71:                                               ; preds = %90, %69
  %72 = load i32, i32* %4, align 4
  %73 = load i32, i32* %2, align 4
  %74 = sub nsw i32 %73, 1
  %75 = load i32, i32* %6, align 4
  %76 = sub nsw i32 %74, %75
  %77 = icmp sle i32 %72, %76
  br i1 %77, label %78, label %93

78:                                               ; preds = %71
  %79 = load i32, i32* %4, align 4
  %80 = sext i32 %79 to i64
  %81 = getelementptr inbounds [100 x [100 x i32]], [100 x [100 x i32]]* %7, i64 0, i64 %80
  %82 = load i32, i32* %3, align 4
  %83 = sub nsw i32 %82, 1
  %84 = load i32, i32* %6, align 4
  %85 = sub nsw i32 %83, %84
  %86 = sext i32 %85 to i64
  %87 = getelementptr inbounds [100 x i32], [100 x i32]* %81, i64 0, i64 %86
  %88 = load i32, i32* %87, align 4
  %89 = call i32 (i8*, ...) @printf(i8* getelementptr inbounds ([4 x i8], [4 x i8]* @.str.2, i64 0, i64 0), i32 %88)
  br label %90

90:                                               ; preds = %78
  %91 = load i32, i32* %4, align 4
  %92 = add nsw i32 %91, 1
  store i32 %92, i32* %4, align 4
  br label %71

93:                                               ; preds = %71
  %94 = load i32, i32* %3, align 4
  %95 = sub nsw i32 %94, 2
  %96 = load i32, i32* %6, align 4
  %97 = sub nsw i32 %95, %96
  store i32 %97, i32* %5, align 4
  br label %98

98:                                               ; preds = %129, %93
  %99 = load i32, i32* %5, align 4
  %100 = load i32, i32* %6, align 4
  %101 = icmp sge i32 %99, %100
  br i1 %101, label %102, label %132

102:                                              ; preds = %98
  %103 = load i32, i32* %6, align 4
  %104 = load i32, i32* %2, align 4
  %105 = sub nsw i32 %104, 1
  %106 = load i32, i32* %6, align 4
  %107 = sub nsw i32 %105, %106
  %108 = icmp ne i32 %103, %107
  br i1 %108, label %109, label %128

109:                                              ; preds = %102
  %110 = load i32, i32* %6, align 4
  %111 = load i32, i32* %3, align 4
  %112 = sub nsw i32 %111, 1
  %113 = load i32, i32* %6, align 4
  %114 = sub nsw i32 %112, %113
  %115 = icmp ne i32 %110, %114
  br i1 %115, label %116, label %128

116:                                              ; preds = %109
  %117 = load i32, i32* %2, align 4
  %118 = sub nsw i32 %117, 1
  %119 = load i32, i32* %6, align 4
  %120 = sub nsw i32 %118, %119
  %121 = sext i32 %120 to i64
  %122 = getelementptr inbounds [100 x [100 x i32]], [100 x [100 x i32]]* %7, i64 0, i64 %121
  %123 = load i32, i32* %5, align 4
  %124 = sext i32 %123 to i64
  %125 = getelementptr inbounds [100 x i32], [100 x i32]* %122, i64 0, i64 %124
  %126 = load i32, i32* %125, align 4
  %127 = call i32 (i8*, ...) @printf(i8* getelementptr inbounds ([4 x i8], [4 x i8]* @.str.2, i64 0, i64 0), i32 %126)
  br label %128

128:                                              ; preds = %116, %109, %102
  br label %129

129:                                              ; preds = %128
  %130 = load i32, i32* %5, align 4
  %131 = add nsw i32 %130, -1
  store i32 %131, i32* %5, align 4
  br label %98

132:                                              ; preds = %98
  %133 = load i32, i32* %2, align 4
  %134 = sub nsw i32 %133, 2
  %135 = load i32, i32* %6, align 4
  %136 = sub nsw i32 %134, %135
  store i32 %136, i32* %4, align 4
  br label %137

137:                                              ; preds = %166, %132
  %138 = load i32, i32* %4, align 4
  %139 = load i32, i32* %6, align 4
  %140 = add nsw i32 1, %139
  %141 = icmp sge i32 %138, %140
  br i1 %141, label %142, label %169

142:                                              ; preds = %137
  %143 = load i32, i32* %6, align 4
  %144 = load i32, i32* %2, align 4
  %145 = sub nsw i32 %144, 1
  %146 = load i32, i32* %6, align 4
  %147 = sub nsw i32 %145, %146
  %148 = icmp ne i32 %143, %147
  br i1 %148, label %149, label %165

149:                                              ; preds = %142
  %150 = load i32, i32* %6, align 4
  %151 = load i32, i32* %3, align 4
  %152 = sub nsw i32 %151, 1
  %153 = load i32, i32* %6, align 4
  %154 = sub nsw i32 %152, %153
  %155 = icmp ne i32 %150, %154
  br i1 %155, label %156, label %165

156:                                              ; preds = %149
  %157 = load i32, i32* %4, align 4
  %158 = sext i32 %157 to i64
  %159 = getelementptr inbounds [100 x [100 x i32]], [100 x [100 x i32]]* %7, i64 0, i64 %158
  %160 = load i32, i32* %6, align 4
  %161 = sext i32 %160 to i64
  %162 = getelementptr inbounds [100 x i32], [100 x i32]* %159, i64 0, i64 %161
  %163 = load i32, i32* %162, align 4
  %164 = call i32 (i8*, ...) @printf(i8* getelementptr inbounds ([4 x i8], [4 x i8]* @.str.2, i64 0, i64 0), i32 %163)
  br label %165

165:                                              ; preds = %156, %149, %142
  br label %166

166:                                              ; preds = %165
  %167 = load i32, i32* %4, align 4
  %168 = add nsw i32 %167, -1
  store i32 %168, i32* %4, align 4
  br label %137

169:                                              ; preds = %137
  br label %170

170:                                              ; preds = %169
  %171 = load i32, i32* %6, align 4
  %172 = add nsw i32 %171, 1
  store i32 %172, i32* %6, align 4
  br label %34

173:                                              ; preds = %46
  ret i32 0
}

declare dso_local i32 @__isoc99_scanf(i8*, ...) #1

declare dso_local i32 @printf(i8*, ...) #1


!llvm.module.flags = !{!0}
!llvm.ident = !{!1}

!0 = !{i32 1, !"wchar_size", i32 4}
!1 = !{!"clang version 10.0.0-4ubuntu1 "}
